; Function Attrs: mustprogress nounwind uwtable
define dso_local void @_ZN4llvm14MCWasmStreamer17emitWeakReferenceEPNS_8MCSymbolEPKS1_(ptr nocapture noundef nonnull readonly align 8 dereferenceable(425) %0, ptr noundef %1, ptr noundef nonnull %2) unnamed_addr #0 align 2 {
  %4 = getelementptr inbounds nuw i8, ptr %0, i64 288
  %5 = load ptr, ptr %4, align 8
  %6 = tail call noundef zeroext i1 @_ZN4llvm11MCAssembler14registerSymbolERKNS_8MCSymbolE(ptr noundef nonnull align 8 dereferenceable(372) %5, ptr noundef nonnull align 8 dereferenceable(32) %2) #12
  %7 = getelementptr inbounds nuw i8, ptr %0, i64 8
  %8 = load ptr, ptr %7, align 8
  %9 = tail call noundef ptr @_ZN4llvm15MCSymbolRefExpr6createEPKNS_8MCSymbolENS0_11VariantKindERNS_9MCContextENS_5SMLocE(ptr noundef nonnull %2, i16 noundef zeroext 29, ptr noundef nonnull align 1 %8, ptr null) #12
  tail call void @_ZN4llvm8MCSymbol16setVariableValueEPKNS_6MCExprE(ptr noundef nonnull align 8 dereferenceable(32) %1, ptr noundef %9) #12
  ret void
}